; ModuleID = 'probe6.5be762f6c951df60-cgu.0'
source_filename = "probe6.5be762f6c951df60-cgu.0"
target datalayout = "e-m:e-p:64:64-i64:64-n32:64-S128"
target triple = "sbf"

; core::f64::<impl f64>::is_subnormal
; Function Attrs: inlinehint nounwind
define internal zeroext i1 @"_ZN4core3f6421_$LT$impl$u20$f64$GT$12is_subnormal17hb72fe9b50491efceE"(double %self) unnamed_addr #0 {
start:
  %_2 = alloca i8, align 1
; call core::f64::<impl f64>::classify
  %0 = call i8 @"_ZN4core3f6421_$LT$impl$u20$f64$GT$8classify17h40ed71b65b999487E"(double %self) #2, !range !1
  store i8 %0, ptr %_2, align 1
  %1 = load i8, ptr %_2, align 1, !range !1, !noundef !2
  %_3 = zext i8 %1 to i64
  %2 = icmp eq i64 %_3, 3
  ret i1 %2
}

; probe6::probe
; Function Attrs: nounwind
define hidden void @_ZN6probe65probe17h6d3fc96a8d83ce46E() unnamed_addr #1 {
start:
; call core::f64::<impl f64>::is_subnormal
  %_1 = call zeroext i1 @"_ZN4core3f6421_$LT$impl$u20$f64$GT$12is_subnormal17hb72fe9b50491efceE"(double 1.000000e+00) #2
  ret void
}

; core::f64::<impl f64>::classify
; Function Attrs: nounwind
declare i8 @"_ZN4core3f6421_$LT$impl$u20$f64$GT$8classify17h40ed71b65b999487E"(double) unnamed_addr #1

attributes #0 = { inlinehint nounwind "target-cpu"="generic" "target-features"="+solana" }
attributes #1 = { nounwind "target-cpu"="generic" "target-features"="+solana" }
attributes #2 = { nounwind }

!llvm.module.flags = !{!0}

!0 = !{i32 8, !"PIC Level", i32 2}
!1 = !{i8 0, i8 5}
!2 = !{}
